target datalayout = "e-m:e-p270:32:32-p271:32:32-p272:64:64-i64:64-i128:128-f80:128-n8:16:32:64-S128"
target triple = "x86_64-pc-linux-gnu"

%struct.Vec_Int_t_ = type { i32, i32, ptr }
%struct.Gia_Man_t_ = type { ptr, ptr, i32, i32, i32, i32, ptr, ptr, i32, i32, i32, ptr, ptr, %struct.Vec_Int_t_, %struct.Vec_Int_t_, i32, i32, i32, %struct.Vec_Int_t_, ptr, ptr, ptr, i32, i32, i32, i32, ptr, ptr, ptr, ptr, ptr, i32, i32, ptr, i32, ptr, ptr, ptr, ptr, ptr, ptr, ptr, ptr, ptr, ptr, ptr, ptr, ptr, ptr, ptr, ptr, ptr, ptr, %struct.Vec_Int_t_, %struct.Vec_Int_t_, ptr, ptr, ptr, ptr, ptr, ptr, ptr, ptr, ptr, ptr, ptr, ptr, ptr, ptr, ptr, ptr, ptr, ptr, ptr, ptr, ptr, i32, float, float, ptr, ptr, i32, ptr, ptr, ptr, ptr, ptr, ptr, ptr, ptr, ptr, ptr, ptr, ptr, ptr, ptr, ptr, i64, i64, ptr, ptr, i32, i32, i32, i32, i32, i32, i32, i32, i32, i32, i32, i32, ptr, ptr, ptr, ptr, ptr, ptr, ptr, ptr, i32, i32, i32, ptr, i32, i32, ptr, ptr, ptr, ptr, ptr, ptr, i32, i32, ptr, %struct.Vec_Int_t_, %struct.Vec_Int_t_, %struct.Vec_Int_t_, ptr, ptr, ptr }

@.str.7 = private unnamed_addr constant [26 x i8] c"Verification suceessful.\0A\00", align 1

; Function Attrs: nounwind uwtable
define internal i32 @Gia_ManHasChoices(ptr noundef %0) #0 {
  %2 = alloca ptr, align 8
  store ptr %0, ptr %2, align 8
  %3 = load ptr, ptr %2, align 8
  %4 = getelementptr inbounds %struct.Gia_Man_t_, ptr %3, i32 0, i32 29
  %5 = load ptr, ptr %4, align 8
  %6 = icmp ne ptr %5, null
  %7 = zext i1 %6 to i32
  ret i32 %7
}

; Function Attrs: nounwind uwtable
define void @Abc_NtkTestTimByWritingFile(ptr noundef %0, ptr noundef %1) #0 {
  %3 = alloca ptr, align 8
  %4 = alloca ptr, align 8
  %5 = alloca ptr, align 8
  store ptr %0, ptr %3, align 8
  store ptr %1, ptr %4, align 8
  %6 = load ptr, ptr %3, align 8
  %7 = call i32 @Gia_ManHasChoices(ptr noundef %6)
  %8 = icmp ne i32 %7, 0
  br i1 %8, label %9, label %12

9:                                                ; preds = %2
  %10 = load ptr, ptr %3, align 8
  call void @Gia_ManVerifyChoices(ptr noundef %10)
  %11 = load ptr, ptr %3, align 8
  call void @Gia_ManReverseClasses(ptr noundef %11, i32 noundef 0)
  br label %12

12:                                               ; preds = %9, %2
  %13 = load ptr, ptr %3, align 8
  %14 = load ptr, ptr %4, align 8
  call void @Gia_AigerWrite(ptr noundef %13, ptr noundef %14, i32 noundef 0, i32 noundef 0, i32 noundef 0)
  %15 = load ptr, ptr %3, align 8
  %16 = call i32 @Gia_ManHasChoices(ptr noundef %15)
  %17 = icmp ne i32 %16, 0
  br i1 %17, label %18, label %20

18:                                               ; preds = %12
  %19 = load ptr, ptr %3, align 8
  call void @Gia_ManReverseClasses(ptr noundef %19, i32 noundef 1)
  br label %20

20:                                               ; preds = %18, %12
  %21 = load ptr, ptr %4, align 8
  %22 = call ptr @Gia_AigerRead(ptr noundef %21, i32 noundef 0, i32 noundef 1, i32 noundef 1)
  store ptr %22, ptr %5, align 8
  %23 = load ptr, ptr %5, align 8
  %24 = call i32 @Gia_ManHasChoices(ptr noundef %23)
  %25 = icmp ne i32 %24, 0
  br i1 %25, label %26, label %29

26:                                               ; preds = %20
  %27 = load ptr, ptr %5, align 8
  call void @Gia_ManVerifyChoices(ptr noundef %27)
  %28 = load ptr, ptr %5, align 8
  call void @Gia_ManReverseClasses(ptr noundef %28, i32 noundef 1)
  br label %29

29:                                               ; preds = %26, %20
  %30 = load ptr, ptr %3, align 8
  %31 = load ptr, ptr %5, align 8
  %32 = call i32 @Gia_ManCompare(ptr noundef %30, ptr noundef %31)
  %33 = icmp ne i32 %32, 0
  br i1 %33, label %34, label %36

34:                                               ; preds = %29
  %35 = call i32 (ptr, ...) @printf(ptr noundef @.str.7)
  br label %36

36:                                               ; preds = %34, %29
  %37 = load ptr, ptr %5, align 8
  call void @Gia_ManStop(ptr noundef %37)
  ret void
}