; Function Attrs: nounwind uwtable
define void @Abc_NtkTestTimByWritingFile(ptr noundef %0, ptr noundef %1) local_unnamed_addr #0 {
  %3 = getelementptr i8, ptr %0, i64 208
  %.val = load ptr, ptr %3, align 8
  %.not19 = icmp eq ptr %.val, null
  br i1 %.not19, label %5, label %4

4:                                                ; preds = %2
  tail call void @Gia_ManVerifyChoices(ptr noundef nonnull %0)
  tail call void @Gia_ManReverseClasses(ptr noundef nonnull %0, i32 noundef 0)
  br label %5

5:                                                ; preds = %4, %2
  tail call void @Gia_AigerWrite(ptr noundef nonnull %0, ptr noundef %1, i32 noundef 0, i32 noundef 0, i32 noundef 0) #11
  %.val17 = load ptr, ptr %3, align 8
  %.not = icmp eq ptr %.val17, null
  br i1 %.not, label %7, label %6

6:                                                ; preds = %5
  tail call void @Gia_ManReverseClasses(ptr noundef nonnull %0, i32 noundef 1)
  br label %7

7:                                                ; preds = %6, %5
  %8 = tail call ptr @Gia_AigerRead(ptr noundef %1, i32 noundef 0, i32 noundef 1, i32 noundef 1) #11
  %9 = getelementptr i8, ptr %8, i64 208
  %.val18 = load ptr, ptr %9, align 8
  %.not20 = icmp eq ptr %.val18, null
  br i1 %.not20, label %11, label %10

10:                                               ; preds = %7
  tail call void @Gia_ManVerifyChoices(ptr noundef nonnull %8)
  tail call void @Gia_ManReverseClasses(ptr noundef nonnull %8, i32 noundef 1)
  br label %11

11:                                               ; preds = %10, %7
  %12 = tail call i32 @Gia_ManCompare(ptr noundef nonnull %0, ptr noundef nonnull %8) #11
  %.not16 = icmp eq i32 %12, 0
  br i1 %.not16, label %14, label %13

13:                                               ; preds = %11
  %puts = tail call i32 @puts(ptr nonnull dereferenceable(1) @str)
  br label %14

14:                                               ; preds = %13, %11
  tail call void @Gia_ManStop(ptr noundef nonnull %8) #11
  ret void
}